; Function Attrs: mustprogress nounwind uwtable
define noundef i32 @_Z13yylex_destroyPv(ptr nocapture noundef %0) local_unnamed_addr #5 {
  %2 = getelementptr inbounds i8, ptr %0, i64 24
  %3 = getelementptr inbounds i8, ptr %0, i64 40
  %4 = load ptr, ptr %3, align 8
  %.not26 = icmp eq ptr %4, null
  br i1 %.not26, label %.thread, label %.lr.ph

.lr.ph:                                           ; preds = %1
  %5 = getelementptr inbounds i8, ptr %0, i64 52
  %6 = getelementptr inbounds i8, ptr %0, i64 64
  %7 = getelementptr inbounds i8, ptr %0, i64 128
  %8 = getelementptr inbounds i8, ptr %0, i64 8
  %9 = getelementptr inbounds i8, ptr %0, i64 48
  %10 = getelementptr inbounds i8, ptr %0, i64 80
  %11 = load i64, ptr %2, align 8
  %12 = getelementptr inbounds ptr, ptr %4, i64 %11
  %13 = load ptr, ptr %12, align 8
  %.not2133 = icmp eq ptr %13, null
  br i1 %.not2133, label %.thread, label %.lr.ph34

.lr.ph34:                                         ; preds = %.lr.ph, %_Z18yypop_buffer_statePv.exit
  %14 = phi ptr [ %59, %_Z18yypop_buffer_statePv.exit ], [ %13, %.lr.ph ]
  %15 = phi ptr [ %58, %_Z18yypop_buffer_statePv.exit ], [ %12, %.lr.ph ]
  store ptr null, ptr %15, align 8
  %16 = getelementptr inbounds i8, ptr %14, i64 32
  %17 = load i32, ptr %16, align 8
  %.not15.i = icmp eq i32 %17, 0
  br i1 %.not15.i, label %_Z16yy_delete_bufferP15yy_buffer_statePv.exit, label %18

18:                                               ; preds = %.lr.ph34
  %19 = getelementptr inbounds i8, ptr %14, i64 8
  %20 = load ptr, ptr %19, align 8
  tail call void @free(ptr noundef %20) #43
  br label %_Z16yy_delete_bufferP15yy_buffer_statePv.exit

_Z16yy_delete_bufferP15yy_buffer_statePv.exit:    ; preds = %.lr.ph34, %18
  tail call void @free(ptr noundef nonnull %14) #43
  %.pre31 = load i64, ptr %2, align 8
  %.pre = load ptr, ptr %3, align 8
  %21 = getelementptr inbounds ptr, ptr %.pre, i64 %.pre31
  store ptr null, ptr %21, align 8
  %22 = load ptr, ptr %3, align 8
  %.not.i23 = icmp eq ptr %22, null
  br i1 %.not.i23, label %.thread, label %23

23:                                               ; preds = %_Z16yy_delete_bufferP15yy_buffer_statePv.exit
  %24 = load i64, ptr %2, align 8
  %25 = getelementptr inbounds ptr, ptr %22, i64 %24
  %26 = load ptr, ptr %25, align 8
  %27 = icmp eq ptr %26, null
  br i1 %27, label %_Z18yypop_buffer_statePv.exit, label %28

28:                                               ; preds = %23
  store ptr null, ptr %25, align 8
  %29 = getelementptr inbounds i8, ptr %26, i64 32
  %30 = load i32, ptr %29, align 8
  %.not15.i.i = icmp eq i32 %30, 0
  br i1 %.not15.i.i, label %_Z16yy_delete_bufferP15yy_buffer_statePv.exit.i, label %31

31:                                               ; preds = %28
  %32 = getelementptr inbounds i8, ptr %26, i64 8
  %33 = load ptr, ptr %32, align 8
  tail call void @free(ptr noundef %33) #43
  br label %_Z16yy_delete_bufferP15yy_buffer_statePv.exit.i

_Z16yy_delete_bufferP15yy_buffer_statePv.exit.i:  ; preds = %31, %28
  tail call void @free(ptr noundef nonnull %26) #43
  %34 = load ptr, ptr %3, align 8
  %35 = load i64, ptr %2, align 8
  %36 = getelementptr inbounds ptr, ptr %34, i64 %35
  store ptr null, ptr %36, align 8
  %37 = load i64, ptr %2, align 8
  %.not22.i = icmp eq i64 %37, 0
  br i1 %.not22.i, label %40, label %38

38:                                               ; preds = %_Z16yy_delete_bufferP15yy_buffer_statePv.exit.i
  %39 = add i64 %37, -1
  store i64 %39, ptr %2, align 8
  br label %40

40:                                               ; preds = %38, %_Z16yy_delete_bufferP15yy_buffer_statePv.exit.i
  %41 = phi i64 [ %39, %38 ], [ 0, %_Z16yy_delete_bufferP15yy_buffer_statePv.exit.i ]
  %42 = load ptr, ptr %3, align 8
  %.not23.i = icmp eq ptr %42, null
  br i1 %.not23.i, label %.thread, label %43

43:                                               ; preds = %40
  %44 = getelementptr inbounds ptr, ptr %42, i64 %41
  %45 = load ptr, ptr %44, align 8
  %46 = icmp eq ptr %45, null
  br i1 %46, label %_Z18yypop_buffer_statePv.exit, label %47

47:                                               ; preds = %43
  %48 = getelementptr inbounds i8, ptr %45, i64 28
  %49 = load i32, ptr %48, align 4
  store i32 %49, ptr %5, align 4
  %50 = load ptr, ptr %44, align 8
  %51 = getelementptr inbounds i8, ptr %50, i64 16
  %52 = load ptr, ptr %51, align 8
  store ptr %52, ptr %6, align 8
  store ptr %52, ptr %7, align 8
  %53 = load ptr, ptr %44, align 8
  %54 = load ptr, ptr %53, align 8
  store ptr %54, ptr %8, align 8
  %55 = load i8, ptr %52, align 1
  store i8 %55, ptr %9, align 8
  store i32 1, ptr %10, align 8
  br label %_Z18yypop_buffer_statePv.exit

_Z18yypop_buffer_statePv.exit:                    ; preds = %23, %43, %47
  %56 = phi ptr [ %22, %23 ], [ %42, %43 ], [ %42, %47 ]
  %57 = load i64, ptr %2, align 8
  %58 = getelementptr inbounds ptr, ptr %56, i64 %57
  %59 = load ptr, ptr %58, align 8
  %.not21 = icmp eq ptr %59, null
  br i1 %.not21, label %.thread, label %.lr.ph34, !llvm.loop !21

.thread:                                          ; preds = %_Z18yypop_buffer_statePv.exit, %_Z16yy_delete_bufferP15yy_buffer_statePv.exit, %40, %.lr.ph, %1
  %.lcssa = phi ptr [ null, %1 ], [ %4, %.lr.ph ], [ null, %40 ], [ null, %_Z16yy_delete_bufferP15yy_buffer_statePv.exit ], [ %56, %_Z18yypop_buffer_statePv.exit ]
  tail call void @free(ptr noundef %.lcssa) #43
  store ptr null, ptr %3, align 8
  %60 = getelementptr inbounds i8, ptr %0, i64 96
  %61 = load ptr, ptr %60, align 8
  tail call void @free(ptr noundef %61) #43
  tail call void @free(ptr noundef nonnull %0) #43
  ret i32 0
}